target datalayout = "e-m:e-p270:32:32-p271:32:32-p272:64:64-i64:64-i128:128-f80:128-n8:16:32:64-S128"
target triple = "x86_64-pc-linux-gnu"

%struct._object = type { %union.anon, ptr }
%union.anon = type { i64 }
%struct.grpmodulestate = type { ptr }
%struct.group = type { ptr, ptr, i32, ptr }
%struct.anon = type { i32, i32 }

@_Py_NoneStruct = external global %struct._object, align 8

; Function Attrs: alwaysinline nounwind uwtable
define internal i32 @_Py_IsImmortal(ptr noundef %0) #4 {
  %2 = alloca ptr, align 8
  store ptr %0, ptr %2, align 8, !tbaa !3
  %3 = load ptr, ptr %2, align 8, !tbaa !3
  %4 = getelementptr inbounds nuw %struct._object, ptr %3, i32 0, i32 0
  %5 = getelementptr inbounds nuw %struct.anon, ptr %4, i32 0, i32 0
  %6 = load i32, ptr %5, align 8, !tbaa !27
  %7 = icmp slt i32 %6, 0
  %8 = zext i1 %7 to i32
  ret i32 %8
}

; Function Attrs: alwaysinline nounwind uwtable
define internal void @Py_INCREF(ptr noundef %0) #4 {
  %2 = alloca ptr, align 8
  %3 = alloca i32, align 4
  %4 = alloca i32, align 4
  store ptr %0, ptr %2, align 8, !tbaa !3
  call void @llvm.lifetime.start.p0(i64 4, ptr %3) #7
  %5 = load ptr, ptr %2, align 8, !tbaa !3
  %6 = getelementptr inbounds nuw %struct._object, ptr %5, i32 0, i32 0
  %7 = getelementptr inbounds nuw %struct.anon, ptr %6, i32 0, i32 0
  %8 = load i32, ptr %7, align 8, !tbaa !27
  store i32 %8, ptr %3, align 4, !tbaa !12
  %9 = load i32, ptr %3, align 4, !tbaa !12
  %10 = icmp slt i32 %9, 0
  br i1 %10, label %11, label %12

11:                                               ; preds = %1
  store i32 1, ptr %4, align 4
  br label %18

12:                                               ; preds = %1
  %13 = load i32, ptr %3, align 4, !tbaa !12
  %14 = add i32 %13, 1
  %15 = load ptr, ptr %2, align 8, !tbaa !3
  %16 = getelementptr inbounds nuw %struct._object, ptr %15, i32 0, i32 0
  %17 = getelementptr inbounds nuw %struct.anon, ptr %16, i32 0, i32 0
  store i32 %14, ptr %17, align 8, !tbaa !27
  store i32 0, ptr %4, align 4
  br label %18

18:                                               ; preds = %12, %11
  call void @llvm.lifetime.end.p0(i64 4, ptr %3) #7
  %19 = load i32, ptr %4, align 4
  switch i32 %19, label %21 [
    i32 0, label %20
    i32 1, label %20
  ]

20:                                               ; preds = %18, %18
  ret void

21:                                               ; preds = %18
  unreachable
}

; Function Attrs: inlinehint nounwind uwtable
define internal void @Py_XDECREF(ptr noundef %0) #5 {
  %2 = alloca ptr, align 8
  store ptr %0, ptr %2, align 8, !tbaa !3
  %3 = load ptr, ptr %2, align 8, !tbaa !3
  %4 = icmp ne ptr %3, null
  br i1 %4, label %5, label %7

5:                                                ; preds = %1
  %6 = load ptr, ptr %2, align 8, !tbaa !3
  call void @Py_DECREF(ptr noundef %6)
  br label %7

7:                                                ; preds = %5, %1
  ret void
}

; Function Attrs: alwaysinline nounwind uwtable
define internal void @Py_DECREF(ptr noundef %0) #4 {
  %2 = alloca ptr, align 8
  store ptr %0, ptr %2, align 8, !tbaa !3
  %3 = load ptr, ptr %2, align 8, !tbaa !3
  %4 = call i32 @_Py_IsImmortal(ptr noundef %3)
  %5 = icmp ne i32 %4, 0
  br i1 %5, label %6, label %7

6:                                                ; preds = %1
  br label %16

7:                                                ; preds = %1
  %8 = load ptr, ptr %2, align 8, !tbaa !3
  %9 = getelementptr inbounds nuw %struct._object, ptr %8, i32 0, i32 0
  %10 = getelementptr inbounds nuw %struct.anon, ptr %9, i32 0, i32 0
  %11 = load i32, ptr %10, align 8, !tbaa !27
  %12 = add i32 %11, -1
  store i32 %12, ptr %10, align 8, !tbaa !27
  %13 = icmp eq i32 %12, 0
  br i1 %13, label %14, label %16

14:                                               ; preds = %7
  %15 = load ptr, ptr %2, align 8, !tbaa !3
  call void @_Py_Dealloc(ptr noundef %15)
  br label %16

16:                                               ; preds = %6, %14, %7
  ret void
}

; Function Attrs: inlinehint nounwind uwtable
define internal ptr @get_grp_state(ptr noundef %0) #5 {
  %2 = alloca ptr, align 8
  %3 = alloca ptr, align 8
  store ptr %0, ptr %2, align 8, !tbaa !3
  call void @llvm.lifetime.start.p0(i64 8, ptr %3) #7
  %4 = load ptr, ptr %2, align 8, !tbaa !3
  %5 = call ptr @PyModule_GetState(ptr noundef %4)
  store ptr %5, ptr %3, align 8, !tbaa !8
  %6 = load ptr, ptr %3, align 8, !tbaa !8
  call void @llvm.lifetime.end.p0(i64 8, ptr %3) #7
  ret ptr %6
}

; Function Attrs: nounwind uwtable
define internal ptr @mkgrent(ptr noundef %0, ptr noundef %1) #0 {
  %3 = alloca ptr, align 8
  %4 = alloca ptr, align 8
  %5 = alloca ptr, align 8
  %6 = alloca i32, align 4
  %7 = alloca ptr, align 8
  %8 = alloca ptr, align 8
  %9 = alloca ptr, align 8
  %10 = alloca i32, align 4
  %11 = alloca ptr, align 8
  %12 = alloca ptr, align 8
  store ptr %0, ptr %4, align 8, !tbaa !3
  store ptr %1, ptr %5, align 8, !tbaa !25
  call void @llvm.lifetime.start.p0(i64 4, ptr %6) #7
  store i32 0, ptr %6, align 4, !tbaa !12
  call void @llvm.lifetime.start.p0(i64 8, ptr %7) #7
  call void @llvm.lifetime.start.p0(i64 8, ptr %8) #7
  call void @llvm.lifetime.start.p0(i64 8, ptr %9) #7
  %13 = load ptr, ptr %4, align 8, !tbaa !3
  %14 = call ptr @get_grp_state(ptr noundef %13)
  %15 = getelementptr inbounds nuw %struct.grpmodulestate, ptr %14, i32 0, i32 0
  %16 = load ptr, ptr %15, align 8, !tbaa !9
  %17 = call ptr @PyStructSequence_New(ptr noundef %16)
  store ptr %17, ptr %7, align 8, !tbaa !3
  %18 = load ptr, ptr %7, align 8, !tbaa !3
  %19 = icmp eq ptr %18, null
  br i1 %19, label %20, label %21

20:                                               ; preds = %2
  store ptr null, ptr %3, align 8
  store i32 1, ptr %10, align 4
  br label %105

21:                                               ; preds = %2
  %22 = call ptr @PyList_New(i64 noundef 0)
  store ptr %22, ptr %8, align 8, !tbaa !3
  %23 = icmp eq ptr %22, null
  br i1 %23, label %24, label %26

24:                                               ; preds = %21
  %25 = load ptr, ptr %7, align 8, !tbaa !3
  call void @Py_DECREF(ptr noundef %25)
  store ptr null, ptr %3, align 8
  store i32 1, ptr %10, align 4
  br label %105

26:                                               ; preds = %21
  %27 = load ptr, ptr %5, align 8, !tbaa !25
  %28 = getelementptr inbounds nuw %struct.group, ptr %27, i32 0, i32 3
  %29 = load ptr, ptr %28, align 8, !tbaa !28
  store ptr %29, ptr %9, align 8, !tbaa !31
  br label %30

30:                                               ; preds = %55, %26
  call void @llvm.lifetime.start.p0(i64 8, ptr %11) #7
  %31 = load ptr, ptr %9, align 8, !tbaa !31
  call void @llvm.memcpy.p0.p0.i64(ptr align 8 %11, ptr align 8 %31, i64 8, i1 false)
  %32 = load ptr, ptr %11, align 8, !tbaa !21
  %33 = icmp eq ptr %32, null
  br i1 %33, label %34, label %35

34:                                               ; preds = %30
  store i32 2, ptr %10, align 4
  br label %52

35:                                               ; preds = %30
  call void @llvm.lifetime.start.p0(i64 8, ptr %12) #7
  %36 = load ptr, ptr %11, align 8, !tbaa !21
  %37 = call ptr @PyUnicode_DecodeFSDefault(ptr noundef %36)
  store ptr %37, ptr %12, align 8, !tbaa !3
  %38 = load ptr, ptr %12, align 8, !tbaa !3
  %39 = icmp eq ptr %38, null
  br i1 %39, label %45, label %40

40:                                               ; preds = %35
  %41 = load ptr, ptr %8, align 8, !tbaa !3
  %42 = load ptr, ptr %12, align 8, !tbaa !3
  %43 = call i32 @PyList_Append(ptr noundef %41, ptr noundef %42)
  %44 = icmp ne i32 %43, 0
  br i1 %44, label %45, label %49

45:                                               ; preds = %40, %35
  %46 = load ptr, ptr %12, align 8, !tbaa !3
  call void @Py_XDECREF(ptr noundef %46)
  %47 = load ptr, ptr %8, align 8, !tbaa !3
  call void @Py_DECREF(ptr noundef %47)
  %48 = load ptr, ptr %7, align 8, !tbaa !3
  call void @Py_DECREF(ptr noundef %48)
  store ptr null, ptr %3, align 8
  store i32 1, ptr %10, align 4
  br label %51

49:                                               ; preds = %40
  %50 = load ptr, ptr %12, align 8, !tbaa !3
  call void @Py_DECREF(ptr noundef %50)
  store i32 0, ptr %10, align 4
  br label %51

51:                                               ; preds = %49, %45
  call void @llvm.lifetime.end.p0(i64 8, ptr %12) #7
  br label %52

52:                                               ; preds = %51, %34
  call void @llvm.lifetime.end.p0(i64 8, ptr %11) #7
  %53 = load i32, ptr %10, align 4
  switch i32 %53, label %105 [
    i32 0, label %54
    i32 2, label %58
  ]

54:                                               ; preds = %52
  br label %55

55:                                               ; preds = %54
  %56 = load ptr, ptr %9, align 8, !tbaa !31
  %57 = getelementptr ptr, ptr %56, i32 1
  store ptr %57, ptr %9, align 8, !tbaa !31
  br label %30

58:                                               ; preds = %52
  %59 = load ptr, ptr %7, align 8, !tbaa !3
  %60 = load i32, ptr %6, align 4, !tbaa !12
  %61 = add i32 %60, 1
  store i32 %61, ptr %6, align 4, !tbaa !12
  %62 = sext i32 %60 to i64
  %63 = load ptr, ptr %5, align 8, !tbaa !25
  %64 = getelementptr inbounds nuw %struct.group, ptr %63, i32 0, i32 0
  %65 = load ptr, ptr %64, align 8, !tbaa !32
  %66 = call ptr @PyUnicode_DecodeFSDefault(ptr noundef %65)
  call void @PyStructSequence_SetItem(ptr noundef %59, i64 noundef %62, ptr noundef %66)
  %67 = load ptr, ptr %5, align 8, !tbaa !25
  %68 = getelementptr inbounds nuw %struct.group, ptr %67, i32 0, i32 1
  %69 = load ptr, ptr %68, align 8, !tbaa !33
  %70 = icmp ne ptr %69, null
  br i1 %70, label %71, label %80

71:                                               ; preds = %58
  %72 = load ptr, ptr %7, align 8, !tbaa !3
  %73 = load i32, ptr %6, align 4, !tbaa !12
  %74 = add i32 %73, 1
  store i32 %74, ptr %6, align 4, !tbaa !12
  %75 = sext i32 %73 to i64
  %76 = load ptr, ptr %5, align 8, !tbaa !25
  %77 = getelementptr inbounds nuw %struct.group, ptr %76, i32 0, i32 1
  %78 = load ptr, ptr %77, align 8, !tbaa !33
  %79 = call ptr @PyUnicode_DecodeFSDefault(ptr noundef %78)
  call void @PyStructSequence_SetItem(ptr noundef %72, i64 noundef %75, ptr noundef %79)
  br label %85

80:                                               ; preds = %58
  %81 = load ptr, ptr %7, align 8, !tbaa !3
  %82 = load i32, ptr %6, align 4, !tbaa !12
  %83 = add i32 %82, 1
  store i32 %83, ptr %6, align 4, !tbaa !12
  %84 = sext i32 %82 to i64
  call void @PyStructSequence_SetItem(ptr noundef %81, i64 noundef %84, ptr noundef @_Py_NoneStruct)
  call void @Py_INCREF(ptr noundef @_Py_NoneStruct)
  br label %85

85:                                               ; preds = %80, %71
  %86 = load ptr, ptr %7, align 8, !tbaa !3
  %87 = load i32, ptr %6, align 4, !tbaa !12
  %88 = add i32 %87, 1
  store i32 %88, ptr %6, align 4, !tbaa !12
  %89 = sext i32 %87 to i64
  %90 = load ptr, ptr %5, align 8, !tbaa !25
  %91 = getelementptr inbounds nuw %struct.group, ptr %90, i32 0, i32 2
  %92 = load i32, ptr %91, align 8, !tbaa !34
  %93 = call ptr @_PyLong_FromGid(i32 noundef %92)
  call void @PyStructSequence_SetItem(ptr noundef %86, i64 noundef %89, ptr noundef %93)
  %94 = load ptr, ptr %7, align 8, !tbaa !3
  %95 = load i32, ptr %6, align 4, !tbaa !12
  %96 = add i32 %95, 1
  store i32 %96, ptr %6, align 4, !tbaa !12
  %97 = sext i32 %95 to i64
  %98 = load ptr, ptr %8, align 8, !tbaa !3
  call void @PyStructSequence_SetItem(ptr noundef %94, i64 noundef %97, ptr noundef %98)
  %99 = call ptr @PyErr_Occurred()
  %100 = icmp ne ptr %99, null
  br i1 %100, label %101, label %103

101:                                              ; preds = %85
  %102 = load ptr, ptr %7, align 8, !tbaa !3
  call void @Py_DECREF(ptr noundef %102)
  store ptr null, ptr %3, align 8
  store i32 1, ptr %10, align 4
  br label %105

103:                                              ; preds = %85
  %104 = load ptr, ptr %7, align 8, !tbaa !3
  store ptr %104, ptr %3, align 8
  store i32 1, ptr %10, align 4
  br label %105

105:                                              ; preds = %103, %101, %52, %24, %20
  call void @llvm.lifetime.end.p0(i64 8, ptr %9) #7
  call void @llvm.lifetime.end.p0(i64 8, ptr %8) #7
  call void @llvm.lifetime.end.p0(i64 8, ptr %7) #7
  call void @llvm.lifetime.end.p0(i64 4, ptr %6) #7
  %106 = load ptr, ptr %3, align 8
  ret ptr %106
}