; Function Attrs: nounwind uwtable
define internal fastcc ptr @mkgrent(ptr noundef %0, ptr noundef nonnull readonly captures(none) %1) unnamed_addr #0 {
  %3 = tail call ptr @PyModule_GetState(ptr noundef %0) #4
  %4 = load ptr, ptr %3, align 8, !tbaa !3
  %5 = tail call ptr @PyStructSequence_New(ptr noundef %4) #4
  %6 = icmp eq ptr %5, null
  br i1 %6, label %Py_DECREF.exit51, label %7

7:                                                ; preds = %2
  %8 = tail call ptr @PyList_New(i64 noundef 0) #4
  %9 = icmp eq ptr %8, null
  br i1 %9, label %10, label %15

10:                                               ; preds = %7
  %11 = load i32, ptr %5, align 8, !tbaa !10
  %.not.i50 = icmp sgt i32 %11, -1
  br i1 %.not.i50, label %12, label %Py_DECREF.exit51

12:                                               ; preds = %10
  %13 = add nsw i32 %11, -1
  store i32 %13, ptr %5, align 8, !tbaa !10
  %14 = icmp eq i32 %13, 0
  br i1 %14, label %Py_DECREF.exit51.sink.split, label %Py_DECREF.exit51

15:                                               ; preds = %7
  %16 = getelementptr inbounds nuw i8, ptr %1, i64 24
  %17 = load ptr, ptr %16, align 8, !tbaa !29
  %.0.copyload62 = load ptr, ptr %17, align 8
  %18 = icmp eq ptr %.0.copyload62, null
  br i1 %18, label %Py_DECREF.exit47, label %.lr.ph

.lr.ph:                                           ; preds = %15, %42
  %.0.copyload64 = phi ptr [ %.0.copyload, %42 ], [ %.0.copyload62, %15 ]
  %.03663 = phi ptr [ %43, %42 ], [ %17, %15 ]
  %19 = tail call ptr @PyUnicode_DecodeFSDefault(ptr noundef nonnull %.0.copyload64) #4
  %20 = icmp eq ptr %19, null
  br i1 %20, label %.split, label %21

21:                                               ; preds = %.lr.ph
  %22 = tail call i32 @PyList_Append(ptr noundef nonnull %8, ptr noundef nonnull %19) #4
  %.not = icmp eq i32 %22, 0
  %23 = load i32, ptr %19, align 8, !tbaa !10
  %.not.i44 = icmp sgt i32 %23, -1
  br i1 %.not, label %37, label %.split37

.split37:                                         ; preds = %21
  br i1 %.not.i44, label %24, label %.split

24:                                               ; preds = %.split37
  %25 = add nsw i32 %23, -1
  store i32 %25, ptr %19, align 8, !tbaa !10
  %26 = icmp eq i32 %25, 0
  br i1 %26, label %27, label %.split

27:                                               ; preds = %24
  tail call void @_Py_Dealloc(ptr noundef nonnull %19) #4
  br label %.split

.split:                                           ; preds = %.lr.ph, %27, %24, %.split37
  %28 = load i32, ptr %8, align 8, !tbaa !10
  %.not.i48 = icmp sgt i32 %28, -1
  br i1 %.not.i48, label %29, label %Py_DECREF.exit49

29:                                               ; preds = %.split
  %30 = add nsw i32 %28, -1
  store i32 %30, ptr %8, align 8, !tbaa !10
  %31 = icmp eq i32 %30, 0
  br i1 %31, label %32, label %Py_DECREF.exit49

32:                                               ; preds = %29
  tail call void @_Py_Dealloc(ptr noundef nonnull %8) #4
  br label %Py_DECREF.exit49

Py_DECREF.exit49:                                 ; preds = %.split, %29, %32
  %33 = load i32, ptr %5, align 8, !tbaa !10
  %.not.i46 = icmp sgt i32 %33, -1
  br i1 %.not.i46, label %34, label %Py_DECREF.exit51

34:                                               ; preds = %Py_DECREF.exit49
  %35 = add nsw i32 %33, -1
  store i32 %35, ptr %5, align 8, !tbaa !10
  %36 = icmp eq i32 %35, 0
  br i1 %36, label %Py_DECREF.exit51.sink.split, label %Py_DECREF.exit51

37:                                               ; preds = %21
  br i1 %.not.i44, label %38, label %42

38:                                               ; preds = %37
  %39 = add nsw i32 %23, -1
  store i32 %39, ptr %19, align 8, !tbaa !10
  %40 = icmp eq i32 %39, 0
  br i1 %40, label %41, label %42

41:                                               ; preds = %38
  tail call void @_Py_Dealloc(ptr noundef nonnull %19) #4
  br label %42

42:                                               ; preds = %37, %38, %41
  %43 = getelementptr i8, ptr %.03663, i64 8
  %.0.copyload = load ptr, ptr %43, align 8
  %44 = icmp eq ptr %.0.copyload, null
  br i1 %44, label %Py_DECREF.exit47, label %.lr.ph

Py_DECREF.exit47:                                 ; preds = %42, %15
  %45 = load ptr, ptr %1, align 8, !tbaa !32
  %46 = tail call ptr @PyUnicode_DecodeFSDefault(ptr noundef %45) #4
  tail call void @PyStructSequence_SetItem(ptr noundef nonnull %5, i64 noundef 0, ptr noundef %46) #4
  %47 = getelementptr inbounds nuw i8, ptr %1, i64 8
  %48 = load ptr, ptr %47, align 8, !tbaa !33
  %.not42 = icmp eq ptr %48, null
  br i1 %.not42, label %51, label %49

49:                                               ; preds = %Py_DECREF.exit47
  %50 = tail call ptr @PyUnicode_DecodeFSDefault(ptr noundef nonnull %48) #4
  tail call void @PyStructSequence_SetItem(ptr noundef nonnull %5, i64 noundef 1, ptr noundef %50) #4
  br label %Py_INCREF.exit

51:                                               ; preds = %Py_DECREF.exit47
  tail call void @PyStructSequence_SetItem(ptr noundef nonnull %5, i64 noundef 1, ptr noundef nonnull @_Py_NoneStruct) #4
  %52 = load i32, ptr @_Py_NoneStruct, align 8, !tbaa !10
  %53 = icmp slt i32 %52, 0
  br i1 %53, label %Py_INCREF.exit, label %54

54:                                               ; preds = %51
  %55 = add nuw i32 %52, 1
  store i32 %55, ptr @_Py_NoneStruct, align 8, !tbaa !10
  br label %Py_INCREF.exit

Py_INCREF.exit:                                   ; preds = %54, %51, %49
  %56 = getelementptr inbounds nuw i8, ptr %1, i64 16
  %57 = load i32, ptr %56, align 8, !tbaa !34
  %58 = tail call ptr @_PyLong_FromGid(i32 noundef %57) #4
  tail call void @PyStructSequence_SetItem(ptr noundef nonnull %5, i64 noundef 2, ptr noundef %58) #4
  tail call void @PyStructSequence_SetItem(ptr noundef nonnull %5, i64 noundef 3, ptr noundef nonnull %8) #4
  %59 = tail call ptr @PyErr_Occurred() #4
  %.not43 = icmp eq ptr %59, null
  br i1 %.not43, label %Py_DECREF.exit51, label %60

60:                                               ; preds = %Py_INCREF.exit
  %61 = load i32, ptr %5, align 8, !tbaa !10
  %.not.i = icmp sgt i32 %61, -1
  br i1 %.not.i, label %62, label %Py_DECREF.exit51

62:                                               ; preds = %60
  %63 = add nsw i32 %61, -1
  store i32 %63, ptr %5, align 8, !tbaa !10
  %64 = icmp eq i32 %63, 0
  br i1 %64, label %Py_DECREF.exit51.sink.split, label %Py_DECREF.exit51

Py_DECREF.exit51.sink.split:                      ; preds = %62, %34, %12
  tail call void @_Py_Dealloc(ptr noundef nonnull %5) #4
  br label %Py_DECREF.exit51

Py_DECREF.exit51:                                 ; preds = %Py_DECREF.exit51.sink.split, %34, %Py_DECREF.exit49, %62, %60, %12, %10, %Py_INCREF.exit, %2
  %.0 = phi ptr [ null, %2 ], [ %5, %Py_INCREF.exit ], [ null, %10 ], [ null, %12 ], [ null, %60 ], [ null, %62 ], [ null, %Py_DECREF.exit49 ], [ null, %34 ], [ null, %Py_DECREF.exit51.sink.split ]
  ret ptr %.0
}